target datalayout = "e-m:e-p270:32:32-p271:32:32-p272:64:64-i64:64-i128:128-f80:128-n8:16:32:64-S128"
target triple = "x86_64-pc-linux-gnu"

%"struct.Luau::Location" = type { %"struct.Luau::Position", %"struct.Luau::Position" }
%"struct.Luau::Position" = type { i32, i32 }
%"class.Luau::AstNode" = type <{ ptr, i32, %"struct.Luau::Location", [4 x i8] }>

@_ZN4Luau7AstRttiINS_18AstExprConstantNilEE5valueE = linkonce_odr dso_local global i32 0, comdat, align 4
@_ZN4Luau7AstRttiINS_19AstExprConstantBoolEE5valueE = linkonce_odr dso_local global i32 0, comdat, align 4
@_ZN4Luau7AstRttiINS_21AstExprConstantNumberEE5valueE = linkonce_odr dso_local global i32 0, comdat, align 4
@_ZN4Luau7AstRttiINS_21AstExprConstantStringEE5valueE = linkonce_odr dso_local global i32 0, comdat, align 4
@_ZN4Luau7AstRttiINS_15AstExprFunctionEE5valueE = linkonce_odr dso_local global i32 0, comdat, align 4
@_ZN4Luau7AstRttiINS_12AstExprTableEE5valueE = linkonce_odr dso_local global i32 0, comdat, align 4

; Function Attrs: mustprogress nounwind uwtable
define linkonce_odr dso_local noundef i32 @_ZN4Luau18AstExprConstantNil10ClassIndexEv() #2 comdat align 2 {
  %1 = load i32, ptr @_ZN4Luau7AstRttiINS_18AstExprConstantNilEE5valueE, align 4, !tbaa !4
  ret i32 %1
}

; Function Attrs: mustprogress nounwind uwtable
define linkonce_odr dso_local noundef i32 @_ZN4Luau19AstExprConstantBool10ClassIndexEv() #2 comdat align 2 {
  %1 = load i32, ptr @_ZN4Luau7AstRttiINS_19AstExprConstantBoolEE5valueE, align 4, !tbaa !4
  ret i32 %1
}

; Function Attrs: mustprogress nounwind uwtable
define linkonce_odr dso_local noundef i32 @_ZN4Luau21AstExprConstantString10ClassIndexEv() #2 comdat align 2 {
  %1 = load i32, ptr @_ZN4Luau7AstRttiINS_21AstExprConstantStringEE5valueE, align 4, !tbaa !4
  ret i32 %1
}

; Function Attrs: mustprogress nounwind uwtable
define linkonce_odr dso_local noundef i32 @_ZN4Luau21AstExprConstantNumber10ClassIndexEv() #2 comdat align 2 {
  %1 = load i32, ptr @_ZN4Luau7AstRttiINS_21AstExprConstantNumberEE5valueE, align 4, !tbaa !4
  ret i32 %1
}

; Function Attrs: mustprogress nounwind uwtable
define linkonce_odr dso_local noundef i32 @_ZN4Luau15AstExprFunction10ClassIndexEv() #2 comdat align 2 {
  %1 = load i32, ptr @_ZN4Luau7AstRttiINS_15AstExprFunctionEE5valueE, align 4, !tbaa !4
  ret i32 %1
}

; Function Attrs: mustprogress nounwind uwtable
define linkonce_odr dso_local noundef i32 @_ZN4Luau12AstExprTable10ClassIndexEv() #2 comdat align 2 {
  %1 = load i32, ptr @_ZN4Luau7AstRttiINS_12AstExprTableEE5valueE, align 4, !tbaa !4
  ret i32 %1
}

; Function Attrs: mustprogress uwtable
define linkonce_odr dso_local noundef zeroext i1 @_ZNK4Luau7AstNode2isINS_18AstExprConstantNilEEEbv(ptr noundef nonnull align 8 dereferenceable(28) %0) #3 comdat align 2 {
  %2 = alloca ptr, align 8
  store ptr %0, ptr %2, align 8, !tbaa !231
  %3 = load ptr, ptr %2, align 8
  %4 = getelementptr inbounds nuw %"class.Luau::AstNode", ptr %3, i32 0, i32 1
  %5 = load i32, ptr %4, align 8, !tbaa !233
  %6 = call noundef i32 @_ZN4Luau18AstExprConstantNil10ClassIndexEv()
  %7 = icmp eq i32 %5, %6
  ret i1 %7
}

; Function Attrs: mustprogress uwtable
define linkonce_odr dso_local noundef zeroext i1 @_ZNK4Luau7AstNode2isINS_19AstExprConstantBoolEEEbv(ptr noundef nonnull align 8 dereferenceable(28) %0) #3 comdat align 2 {
  %2 = alloca ptr, align 8
  store ptr %0, ptr %2, align 8, !tbaa !231
  %3 = load ptr, ptr %2, align 8
  %4 = getelementptr inbounds nuw %"class.Luau::AstNode", ptr %3, i32 0, i32 1
  %5 = load i32, ptr %4, align 8, !tbaa !233
  %6 = call noundef i32 @_ZN4Luau19AstExprConstantBool10ClassIndexEv()
  %7 = icmp eq i32 %5, %6
  ret i1 %7
}

; Function Attrs: mustprogress uwtable
define linkonce_odr dso_local noundef zeroext i1 @_ZNK4Luau7AstNode2isINS_21AstExprConstantStringEEEbv(ptr noundef nonnull align 8 dereferenceable(28) %0) #3 comdat align 2 {
  %2 = alloca ptr, align 8
  store ptr %0, ptr %2, align 8, !tbaa !231
  %3 = load ptr, ptr %2, align 8
  %4 = getelementptr inbounds nuw %"class.Luau::AstNode", ptr %3, i32 0, i32 1
  %5 = load i32, ptr %4, align 8, !tbaa !233
  %6 = call noundef i32 @_ZN4Luau21AstExprConstantString10ClassIndexEv()
  %7 = icmp eq i32 %5, %6
  ret i1 %7
}

; Function Attrs: mustprogress uwtable
define linkonce_odr dso_local noundef zeroext i1 @_ZNK4Luau7AstNode2isINS_21AstExprConstantNumberEEEbv(ptr noundef nonnull align 8 dereferenceable(28) %0) #3 comdat align 2 {
  %2 = alloca ptr, align 8
  store ptr %0, ptr %2, align 8, !tbaa !231
  %3 = load ptr, ptr %2, align 8
  %4 = getelementptr inbounds nuw %"class.Luau::AstNode", ptr %3, i32 0, i32 1
  %5 = load i32, ptr %4, align 8, !tbaa !233
  %6 = call noundef i32 @_ZN4Luau21AstExprConstantNumber10ClassIndexEv()
  %7 = icmp eq i32 %5, %6
  ret i1 %7
}

; Function Attrs: mustprogress uwtable
define linkonce_odr dso_local noundef zeroext i1 @_ZNK4Luau7AstNode2isINS_15AstExprFunctionEEEbv(ptr noundef nonnull align 8 dereferenceable(28) %0) #3 comdat align 2 {
  %2 = alloca ptr, align 8
  store ptr %0, ptr %2, align 8, !tbaa !231
  %3 = load ptr, ptr %2, align 8
  %4 = getelementptr inbounds nuw %"class.Luau::AstNode", ptr %3, i32 0, i32 1
  %5 = load i32, ptr %4, align 8, !tbaa !233
  %6 = call noundef i32 @_ZN4Luau15AstExprFunction10ClassIndexEv()
  %7 = icmp eq i32 %5, %6
  ret i1 %7
}

; Function Attrs: mustprogress uwtable
define linkonce_odr dso_local noundef zeroext i1 @_ZNK4Luau7AstNode2isINS_12AstExprTableEEEbv(ptr noundef nonnull align 8 dereferenceable(28) %0) #3 comdat align 2 {
  %2 = alloca ptr, align 8
  store ptr %0, ptr %2, align 8, !tbaa !231
  %3 = load ptr, ptr %2, align 8
  %4 = getelementptr inbounds nuw %"class.Luau::AstNode", ptr %3, i32 0, i32 1
  %5 = load i32, ptr %4, align 8, !tbaa !233
  %6 = call noundef i32 @_ZN4Luau12AstExprTable10ClassIndexEv()
  %7 = icmp eq i32 %5, %6
  ret i1 %7
}

; Function Attrs: mustprogress uwtable
define dso_local noundef zeroext i1 @_ZN4Luau9isLiteralEPKNS_7AstExprE(ptr noundef %0) #3 {
  %2 = alloca ptr, align 8
  store ptr %0, ptr %2, align 8, !tbaa !229
  %3 = load ptr, ptr %2, align 8, !tbaa !229
  %4 = call noundef zeroext i1 @_ZNK4Luau7AstNode2isINS_12AstExprTableEEEbv(ptr noundef nonnull align 8 dereferenceable(28) %3)
  br i1 %4, label %20, label %5

5:                                                ; preds = %1
  %6 = load ptr, ptr %2, align 8, !tbaa !229
  %7 = call noundef zeroext i1 @_ZNK4Luau7AstNode2isINS_15AstExprFunctionEEEbv(ptr noundef nonnull align 8 dereferenceable(28) %6)
  br i1 %7, label %20, label %8

8:                                                ; preds = %5
  %9 = load ptr, ptr %2, align 8, !tbaa !229
  %10 = call noundef zeroext i1 @_ZNK4Luau7AstNode2isINS_21AstExprConstantNumberEEEbv(ptr noundef nonnull align 8 dereferenceable(28) %9)
  br i1 %10, label %20, label %11

11:                                               ; preds = %8
  %12 = load ptr, ptr %2, align 8, !tbaa !229
  %13 = call noundef zeroext i1 @_ZNK4Luau7AstNode2isINS_21AstExprConstantStringEEEbv(ptr noundef nonnull align 8 dereferenceable(28) %12)
  br i1 %13, label %20, label %14

14:                                               ; preds = %11
  %15 = load ptr, ptr %2, align 8, !tbaa !229
  %16 = call noundef zeroext i1 @_ZNK4Luau7AstNode2isINS_19AstExprConstantBoolEEEbv(ptr noundef nonnull align 8 dereferenceable(28) %15)
  br i1 %16, label %20, label %17

17:                                               ; preds = %14
  %18 = load ptr, ptr %2, align 8, !tbaa !229
  %19 = call noundef zeroext i1 @_ZNK4Luau7AstNode2isINS_18AstExprConstantNilEEEbv(ptr noundef nonnull align 8 dereferenceable(28) %18)
  br label %20

20:                                               ; preds = %17, %14, %11, %8, %5, %1
  %21 = phi i1 [ true, %14 ], [ true, %11 ], [ true, %8 ], [ true, %5 ], [ true, %1 ], [ %19, %17 ]
  ret i1 %21
}