; Function Attrs: mustprogress nofree norecurse nosync nounwind willreturn memory(read, inaccessiblemem: none) uwtable
define dso_local noundef zeroext i1 @_ZN4Luau9isLiteralEPKNS_7AstExprE(ptr noundef readonly captures(none) %0) local_unnamed_addr #10 {
  %2 = getelementptr inbounds nuw i8, ptr %0, i64 8
  %3 = load i32, ptr %2, align 8, !tbaa !257
  %4 = load i32, ptr @_ZN4Luau7AstRttiINS_12AstExprTableEE5valueE, align 4, !tbaa !4
  %5 = icmp eq i32 %3, %4
  %6 = load i32, ptr @_ZN4Luau7AstRttiINS_15AstExprFunctionEE5valueE, align 4
  %7 = icmp eq i32 %3, %6
  %or.cond = select i1 %5, i1 true, i1 %7
  %8 = load i32, ptr @_ZN4Luau7AstRttiINS_21AstExprConstantNumberEE5valueE, align 4
  %9 = icmp eq i32 %3, %8
  %or.cond8 = select i1 %or.cond, i1 true, i1 %9
  %10 = load i32, ptr @_ZN4Luau7AstRttiINS_21AstExprConstantStringEE5valueE, align 4
  %11 = icmp eq i32 %3, %10
  %or.cond10 = select i1 %or.cond8, i1 true, i1 %11
  %12 = load i32, ptr @_ZN4Luau7AstRttiINS_19AstExprConstantBoolEE5valueE, align 4
  %13 = icmp eq i32 %3, %12
  %or.cond12 = select i1 %or.cond10, i1 true, i1 %13
  br i1 %or.cond12, label %17, label %14

14:                                               ; preds = %1
  %15 = load i32, ptr @_ZN4Luau7AstRttiINS_18AstExprConstantNilEE5valueE, align 4, !tbaa !4
  %16 = icmp eq i32 %3, %15
  br label %17

17:                                               ; preds = %14, %1
  %18 = phi i1 [ true, %1 ], [ %16, %14 ]
  ret i1 %18
}